target datalayout = "e-m:e-p270:32:32-p271:32:32-p272:64:64-i64:64-i128:128-f80:128-n8:16:32:64-S128"
target triple = "x86_64-pc-linux-gnu"

%class.PhaseCoalesce = type { ptr, %class.Phase, ptr }
%class.Phase = type { i32, ptr }
%class.PhaseChaitin = type <{ %class.PhaseRegAlloc, i32, i32, ptr, ptr, %class.VectorSet, %class.VectorSet, i32, i32, i32, i32, i32, [4 x i8], ptr, double, %class.LiveRangeMap, i8, [3 x i8], %"class.PhaseChaitin::Pressure", %"class.PhaseChaitin::Pressure", %"class.PhaseChaitin::Pressure", %"class.PhaseChaitin::Pressure", [4 x i8] }>
%class.PhaseRegAlloc = type { ptr, %class.Phase, ptr, i32, %class.VectorSet, ptr, i32, i32, ptr }
%class.VectorSet = type { i32, ptr, i32, ptr }
%class.LiveRangeMap = type { i32, %class.GrowableArray, %class.GrowableArray }
%class.GrowableArray = type { %class.GrowableArrayWithAllocator, %class.GrowableArrayMetadata }
%class.GrowableArrayWithAllocator = type { %class.GrowableArrayView }
%class.GrowableArrayView = type { %class.GrowableArrayBase, ptr }
%class.GrowableArrayBase = type { i32, i32 }
%class.GrowableArrayMetadata = type { i64 }
%"class.PhaseChaitin::Pressure" = type { i32, i32, i32, i32, i32 }
%class.IndexSet = type { i32, i32, ptr, [16 x ptr], i32, ptr }
%class.PhaseConservativeCoalesce = type { %class.PhaseCoalesce, %class.IndexSet }

@_ZTV25PhaseConservativeCoalesce = hidden unnamed_addr constant { [4 x ptr] } { [4 x ptr] [ptr null, ptr null, ptr @_ZN25PhaseConservativeCoalesce6verifyEv, ptr @_ZN25PhaseConservativeCoalesce8coalesceEP5Block] }, align 8
@_ZTV13PhaseCoalesce = linkonce_odr hidden unnamed_addr constant { [4 x ptr] } { [4 x ptr] [ptr null, ptr null, ptr @__cxa_pure_virtual, ptr @__cxa_pure_virtual] }, comdat, align 8

; Function Attrs: mustprogress nounwind uwtable
define linkonce_odr hidden noundef i32 @_ZNK12LiveRangeMap10max_lrg_idEv(ptr noundef nonnull align 8 dereferenceable(56) %0) #1 comdat align 2 {
  %2 = alloca ptr, align 8
  store ptr %0, ptr %2, align 8
  %3 = load ptr, ptr %2, align 8
  %4 = getelementptr inbounds %class.LiveRangeMap, ptr %3, i32 0, i32 0
  %5 = load i32, ptr %4, align 8
  ret i32 %5
}

; Function Attrs: mustprogress nounwind uwtable
define linkonce_odr hidden void @_ZN8IndexSetC2Ev(ptr noundef nonnull align 8 dereferenceable(160) %0) unnamed_addr #1 comdat align 2 {
  %2 = alloca ptr, align 8
  store ptr %0, ptr %2, align 8
  ret void
}

; Function Attrs: mustprogress nounwind uwtable
define linkonce_odr hidden void @_ZN13PhaseCoalesceC2ER12PhaseChaitin(ptr noundef nonnull align 8 dereferenceable(32) %0, ptr noundef nonnull align 8 dereferenceable(364) %1) unnamed_addr #1 comdat align 2 {
  %3 = alloca ptr, align 8
  %4 = alloca ptr, align 8
  store ptr %0, ptr %3, align 8
  store ptr %1, ptr %4, align 8
  %5 = load ptr, ptr %3, align 8
  %6 = getelementptr inbounds i8, ptr %5, i64 8
  call void @_ZN5PhaseC2ENS_11PhaseNumberE(ptr noundef nonnull align 8 dereferenceable(16) %6, i32 noundef 13)
  store ptr getelementptr inbounds inrange(-16, 16) ({ [4 x ptr] }, ptr @_ZTV13PhaseCoalesce, i32 0, i32 0, i32 2), ptr %5, align 8
  %7 = getelementptr inbounds %class.PhaseCoalesce, ptr %5, i32 0, i32 2
  %8 = load ptr, ptr %4, align 8
  store ptr %8, ptr %7, align 8
  ret void
}

; Function Attrs: mustprogress nounwind uwtable
define hidden void @_ZN25PhaseConservativeCoalesceC2ER12PhaseChaitin(ptr noundef nonnull align 8 dereferenceable(192) %0, ptr noundef nonnull align 8 dereferenceable(364) %1) unnamed_addr #1 align 2 {
  %3 = alloca ptr, align 8
  %4 = alloca ptr, align 8
  store ptr %0, ptr %3, align 8
  store ptr %1, ptr %4, align 8
  %5 = load ptr, ptr %3, align 8
  %6 = load ptr, ptr %4, align 8
  call void @_ZN13PhaseCoalesceC2ER12PhaseChaitin(ptr noundef nonnull align 8 dereferenceable(32) %5, ptr noundef nonnull align 8 dereferenceable(364) %6)
  store ptr getelementptr inbounds inrange(-16, 16) ({ [4 x ptr] }, ptr @_ZTV25PhaseConservativeCoalesce, i32 0, i32 0, i32 2), ptr %5, align 8
  %7 = getelementptr inbounds %class.PhaseConservativeCoalesce, ptr %5, i32 0, i32 1
  call void @_ZN8IndexSetC2Ev(ptr noundef nonnull align 8 dereferenceable(160) %7)
  %8 = getelementptr inbounds %class.PhaseConservativeCoalesce, ptr %5, i32 0, i32 1
  %9 = getelementptr inbounds %class.PhaseCoalesce, ptr %5, i32 0, i32 2
  %10 = load ptr, ptr %9, align 8
  %11 = getelementptr inbounds %class.PhaseChaitin, ptr %10, i32 0, i32 15
  %12 = call noundef i32 @_ZNK12LiveRangeMap10max_lrg_idEv(ptr noundef nonnull align 8 dereferenceable(56) %11)
  call void @_ZN8IndexSet10initializeEj(ptr noundef nonnull align 8 dereferenceable(160) %8, i32 noundef %12)
  ret void
}