; Function Attrs: mustprogress nounwind uwtable
define hidden void @_ZN25PhaseConservativeCoalesceC2ER12PhaseChaitin(ptr noundef nonnull align 8 dereferenceable(192) %0, ptr noundef nonnull align 8 dereferenceable(364) %1) unnamed_addr #0 align 2 {
  %3 = getelementptr inbounds i8, ptr %0, i64 8
  tail call void @_ZN5PhaseC2ENS_11PhaseNumberE(ptr noundef nonnull align 8 dereferenceable(16) %3, i32 noundef 13) #9
  %4 = getelementptr inbounds i8, ptr %0, i64 24
  store ptr %1, ptr %4, align 8
  store ptr getelementptr inbounds inrange(-16, 16) (i8, ptr @_ZTV25PhaseConservativeCoalesce, i64 16), ptr %0, align 8
  %5 = getelementptr inbounds i8, ptr %0, i64 32
  %6 = getelementptr inbounds i8, ptr %1, i64 224
  %7 = load i32, ptr %6, align 8
  tail call void @_ZN8IndexSet10initializeEj(ptr noundef nonnull align 8 dereferenceable(160) %5, i32 noundef %7) #9
  ret void
}